target datalayout = "e-m:e-p270:32:32-p271:32:32-p272:64:64-i64:64-i128:128-f80:128-n8:16:32:64-S128"
target triple = "x86_64-pc-linux-gnu"

%"class.llvm::SmallVectorBase" = type { ptr, i32, i32 }
%"class.std::__cxx11::basic_string" = type { %"struct.std::__cxx11::basic_string<char>::_Alloc_hider", i64, %union.anon }
%"struct.std::__cxx11::basic_string<char>::_Alloc_hider" = type { ptr }
%union.anon = type { i64, [8 x i8] }
%"struct.clang::format::(anonymous namespace)::UsingDeclaration" = type { ptr, %"class.std::__cxx11::basic_string" }
%"class.std::move_iterator" = type { ptr }

; Function Attrs: mustprogress nounwind uwtable
define internal noundef ptr @_ZNKSt13move_iteratorIPN5clang6format12_GLOBAL__N_116UsingDeclarationEE4baseEv(ptr noundef nonnull align 8 dereferenceable(8) %0) #0 align 2 {
  %2 = alloca ptr, align 8
  store ptr %0, ptr %2, align 8
  %3 = load ptr, ptr %2, align 8
  %4 = getelementptr inbounds nuw %"class.std::move_iterator", ptr %3, i32 0, i32 0
  %5 = load ptr, ptr %4, align 8
  ret ptr %5
}

; Function Attrs: mustprogress nounwind uwtable
define internal void @_ZN5clang6format12_GLOBAL__N_116UsingDeclarationC2EOS2_(ptr noundef nonnull align 8 dereferenceable(40) %0, ptr noundef nonnull align 8 dereferenceable(40) %1) unnamed_addr #0 align 2 {
  %3 = alloca ptr, align 8
  %4 = alloca ptr, align 8
  store ptr %0, ptr %3, align 8
  store ptr %1, ptr %4, align 8
  %5 = load ptr, ptr %3, align 8
  %6 = getelementptr inbounds nuw %"struct.clang::format::(anonymous namespace)::UsingDeclaration", ptr %5, i32 0, i32 0
  %7 = load ptr, ptr %4, align 8
  %8 = getelementptr inbounds nuw %"struct.clang::format::(anonymous namespace)::UsingDeclaration", ptr %7, i32 0, i32 0
  %9 = load ptr, ptr %8, align 8
  store ptr %9, ptr %6, align 8
  %10 = getelementptr inbounds nuw %"struct.clang::format::(anonymous namespace)::UsingDeclaration", ptr %5, i32 0, i32 1
  %11 = load ptr, ptr %4, align 8
  %12 = getelementptr inbounds nuw %"struct.clang::format::(anonymous namespace)::UsingDeclaration", ptr %11, i32 0, i32 1
  call void @_ZNSt7__cxx1112basic_stringIcSt11char_traitsIcESaIcEEC1EOS4_(ptr noundef nonnull align 8 dereferenceable(32) %10, ptr noundef nonnull align 8 dereferenceable(32) %12) #9
  ret void
}

; Function Attrs: mustprogress nounwind uwtable
define internal noundef zeroext i1 @_ZSteqIPN5clang6format12_GLOBAL__N_116UsingDeclarationEEbRKSt13move_iteratorIT_ES9_(ptr noundef nonnull align 8 dereferenceable(8) %0, ptr noundef nonnull align 8 dereferenceable(8) %1) #0 {
  %3 = alloca ptr, align 8
  %4 = alloca ptr, align 8
  store ptr %0, ptr %3, align 8
  store ptr %1, ptr %4, align 8
  %5 = load ptr, ptr %3, align 8
  %6 = call noundef ptr @_ZNKSt13move_iteratorIPN5clang6format12_GLOBAL__N_116UsingDeclarationEE4baseEv(ptr noundef nonnull align 8 dereferenceable(8) %5)
  %7 = load ptr, ptr %4, align 8
  %8 = call noundef ptr @_ZNKSt13move_iteratorIPN5clang6format12_GLOBAL__N_116UsingDeclarationEE4baseEv(ptr noundef nonnull align 8 dereferenceable(8) %7)
  %9 = icmp eq ptr %6, %8
  ret i1 %9
}

; Function Attrs: mustprogress nounwind uwtable
define internal noundef nonnull align 8 dereferenceable(8) ptr @_ZNSt13move_iteratorIPN5clang6format12_GLOBAL__N_116UsingDeclarationEEppEv(ptr noundef nonnull align 8 dereferenceable(8) %0) #0 align 2 {
  %2 = alloca ptr, align 8
  store ptr %0, ptr %2, align 8
  %3 = load ptr, ptr %2, align 8
  %4 = getelementptr inbounds nuw %"class.std::move_iterator", ptr %3, i32 0, i32 0
  %5 = load ptr, ptr %4, align 8
  %6 = getelementptr inbounds %"struct.clang::format::(anonymous namespace)::UsingDeclaration", ptr %5, i32 1
  store ptr %6, ptr %4, align 8
  ret ptr %3
}

; Function Attrs: mustprogress nounwind uwtable
define internal void @_ZSt10_ConstructIN5clang6format12_GLOBAL__N_116UsingDeclarationEJS3_EEvPT_DpOT0_(ptr noundef %0, ptr noundef nonnull align 8 dereferenceable(40) %1) #0 {
  %3 = alloca ptr, align 8
  %4 = alloca ptr, align 8
  store ptr %0, ptr %3, align 8
  store ptr %1, ptr %4, align 8
  %5 = load ptr, ptr %3, align 8
  %6 = load ptr, ptr %4, align 8
  call void @_ZN5clang6format12_GLOBAL__N_116UsingDeclarationC2EOS2_(ptr noundef nonnull align 8 dereferenceable(40) %5, ptr noundef nonnull align 8 dereferenceable(40) %6) #9
  ret void
}

; Function Attrs: mustprogress nounwind uwtable
define internal noundef nonnull align 8 dereferenceable(40) ptr @_ZNKSt13move_iteratorIPN5clang6format12_GLOBAL__N_116UsingDeclarationEEdeEv(ptr noundef nonnull align 8 dereferenceable(8) %0) #0 align 2 {
  %2 = alloca ptr, align 8
  store ptr %0, ptr %2, align 8
  %3 = load ptr, ptr %2, align 8
  %4 = getelementptr inbounds nuw %"class.std::move_iterator", ptr %3, i32 0, i32 0
  %5 = load ptr, ptr %4, align 8
  ret ptr %5
}

; Function Attrs: mustprogress nounwind uwtable
define internal noundef zeroext i1 @_ZStneIPN5clang6format12_GLOBAL__N_116UsingDeclarationEEbRKSt13move_iteratorIT_ES9_(ptr noundef nonnull align 8 dereferenceable(8) %0, ptr noundef nonnull align 8 dereferenceable(8) %1) #0 {
  %3 = alloca ptr, align 8
  %4 = alloca ptr, align 8
  store ptr %0, ptr %3, align 8
  store ptr %1, ptr %4, align 8
  %5 = load ptr, ptr %3, align 8
  %6 = load ptr, ptr %4, align 8
  %7 = call noundef zeroext i1 @_ZSteqIPN5clang6format12_GLOBAL__N_116UsingDeclarationEEbRKSt13move_iteratorIT_ES9_(ptr noundef nonnull align 8 dereferenceable(8) %5, ptr noundef nonnull align 8 dereferenceable(8) %6)
  %8 = xor i1 %7, true
  ret i1 %8
}

; Function Attrs: mustprogress nounwind uwtable
define internal noundef ptr @_ZSt16__do_uninit_copyISt13move_iteratorIPN5clang6format12_GLOBAL__N_116UsingDeclarationEES5_ET0_T_S8_S7_(ptr %0, ptr %1, ptr noundef %2) #0 {
  %4 = alloca %"class.std::move_iterator", align 8
  %5 = alloca %"class.std::move_iterator", align 8
  %6 = alloca ptr, align 8
  %7 = alloca ptr, align 8
  %8 = getelementptr inbounds nuw %"class.std::move_iterator", ptr %4, i32 0, i32 0
  store ptr %0, ptr %8, align 8
  %9 = getelementptr inbounds nuw %"class.std::move_iterator", ptr %5, i32 0, i32 0
  store ptr %1, ptr %9, align 8
  store ptr %2, ptr %6, align 8
  %10 = load ptr, ptr %6, align 8
  store ptr %10, ptr %7, align 8
  br label %11

11:                                               ; preds = %16, %3
  %12 = call noundef zeroext i1 @_ZStneIPN5clang6format12_GLOBAL__N_116UsingDeclarationEEbRKSt13move_iteratorIT_ES9_(ptr noundef nonnull align 8 dereferenceable(8) %4, ptr noundef nonnull align 8 dereferenceable(8) %5)
  br i1 %12, label %13, label %20

13:                                               ; preds = %11
  %14 = load ptr, ptr %7, align 8
  %15 = call noundef nonnull align 8 dereferenceable(40) ptr @_ZNKSt13move_iteratorIPN5clang6format12_GLOBAL__N_116UsingDeclarationEEdeEv(ptr noundef nonnull align 8 dereferenceable(8) %4)
  call void @_ZSt10_ConstructIN5clang6format12_GLOBAL__N_116UsingDeclarationEJS3_EEvPT_DpOT0_(ptr noundef %14, ptr noundef nonnull align 8 dereferenceable(40) %15)
  br label %16

16:                                               ; preds = %13
  %17 = call noundef nonnull align 8 dereferenceable(8) ptr @_ZNSt13move_iteratorIPN5clang6format12_GLOBAL__N_116UsingDeclarationEEppEv(ptr noundef nonnull align 8 dereferenceable(8) %4)
  %18 = load ptr, ptr %7, align 8
  %19 = getelementptr inbounds %"struct.clang::format::(anonymous namespace)::UsingDeclaration", ptr %18, i32 1
  store ptr %19, ptr %7, align 8
  br label %11, !llvm.loop !9

20:                                               ; preds = %11
  %21 = load ptr, ptr %7, align 8
  ret ptr %21
}

; Function Attrs: mustprogress nounwind uwtable
define internal noundef ptr @_ZNSt20__uninitialized_copyILb0EE13__uninit_copyISt13move_iteratorIPN5clang6format12_GLOBAL__N_116UsingDeclarationEES7_EET0_T_SA_S9_(ptr %0, ptr %1, ptr noundef %2) #0 align 2 {
  %4 = alloca %"class.std::move_iterator", align 8
  %5 = alloca %"class.std::move_iterator", align 8
  %6 = alloca ptr, align 8
  %7 = alloca %"class.std::move_iterator", align 8
  %8 = alloca %"class.std::move_iterator", align 8
  %9 = getelementptr inbounds nuw %"class.std::move_iterator", ptr %4, i32 0, i32 0
  store ptr %0, ptr %9, align 8
  %10 = getelementptr inbounds nuw %"class.std::move_iterator", ptr %5, i32 0, i32 0
  store ptr %1, ptr %10, align 8
  store ptr %2, ptr %6, align 8
  call void @llvm.memcpy.p0.p0.i64(ptr align 8 %7, ptr align 8 %4, i64 8, i1 false)
  call void @llvm.memcpy.p0.p0.i64(ptr align 8 %8, ptr align 8 %5, i64 8, i1 false)
  %11 = load ptr, ptr %6, align 8
  %12 = getelementptr inbounds nuw %"class.std::move_iterator", ptr %7, i32 0, i32 0
  %13 = load ptr, ptr %12, align 8
  %14 = getelementptr inbounds nuw %"class.std::move_iterator", ptr %8, i32 0, i32 0
  %15 = load ptr, ptr %14, align 8
  %16 = call noundef ptr @_ZSt16__do_uninit_copyISt13move_iteratorIPN5clang6format12_GLOBAL__N_116UsingDeclarationEES5_ET0_T_S8_S7_(ptr %13, ptr %15, ptr noundef %11)
  ret ptr %16
}

; Function Attrs: mustprogress nounwind uwtable
define internal void @_ZNSt13move_iteratorIPN5clang6format12_GLOBAL__N_116UsingDeclarationEEC2ES4_(ptr noundef nonnull align 8 dereferenceable(8) %0, ptr noundef %1) unnamed_addr #0 align 2 {
  %3 = alloca ptr, align 8
  %4 = alloca ptr, align 8
  store ptr %0, ptr %3, align 8
  store ptr %1, ptr %4, align 8
  %5 = load ptr, ptr %3, align 8
  %6 = getelementptr inbounds nuw %"class.std::move_iterator", ptr %5, i32 0, i32 0
  %7 = load ptr, ptr %4, align 8
  store ptr %7, ptr %6, align 8
  ret void
}

; Function Attrs: mustprogress nounwind uwtable
define internal noundef ptr @_ZSt18uninitialized_copyISt13move_iteratorIPN5clang6format12_GLOBAL__N_116UsingDeclarationEES5_ET0_T_S8_S7_(ptr %0, ptr %1, ptr noundef %2) #0 {
  %4 = alloca %"class.std::move_iterator", align 8
  %5 = alloca %"class.std::move_iterator", align 8
  %6 = alloca ptr, align 8
  %7 = alloca i8, align 1
  %8 = alloca i8, align 1
  %9 = alloca %"class.std::move_iterator", align 8
  %10 = alloca %"class.std::move_iterator", align 8
  %11 = getelementptr inbounds nuw %"class.std::move_iterator", ptr %4, i32 0, i32 0
  store ptr %0, ptr %11, align 8
  %12 = getelementptr inbounds nuw %"class.std::move_iterator", ptr %5, i32 0, i32 0
  store ptr %1, ptr %12, align 8
  store ptr %2, ptr %6, align 8
  store i8 0, ptr %7, align 1
  store i8 0, ptr %8, align 1
  call void @llvm.memcpy.p0.p0.i64(ptr align 8 %9, ptr align 8 %4, i64 8, i1 false)
  call void @llvm.memcpy.p0.p0.i64(ptr align 8 %10, ptr align 8 %5, i64 8, i1 false)
  %13 = load ptr, ptr %6, align 8
  %14 = getelementptr inbounds nuw %"class.std::move_iterator", ptr %9, i32 0, i32 0
  %15 = load ptr, ptr %14, align 8
  %16 = getelementptr inbounds nuw %"class.std::move_iterator", ptr %10, i32 0, i32 0
  %17 = load ptr, ptr %16, align 8
  %18 = call noundef ptr @_ZNSt20__uninitialized_copyILb0EE13__uninit_copyISt13move_iteratorIPN5clang6format12_GLOBAL__N_116UsingDeclarationEES7_EET0_T_SA_S9_(ptr %15, ptr %17, ptr noundef %13)
  ret ptr %18
}

; Function Attrs: mustprogress nounwind uwtable
define internal ptr @_ZSt18make_move_iteratorIPN5clang6format12_GLOBAL__N_116UsingDeclarationEESt13move_iteratorIT_ES6_(ptr noundef %0) #0 {
  %2 = alloca %"class.std::move_iterator", align 8
  %3 = alloca ptr, align 8
  store ptr %0, ptr %3, align 8
  %4 = load ptr, ptr %3, align 8
  call void @_ZNSt13move_iteratorIPN5clang6format12_GLOBAL__N_116UsingDeclarationEEC2ES4_(ptr noundef nonnull align 8 dereferenceable(8) %2, ptr noundef %4)
  %5 = getelementptr inbounds nuw %"class.std::move_iterator", ptr %2, i32 0, i32 0
  %6 = load ptr, ptr %5, align 8
  ret ptr %6
}

; Function Attrs: mustprogress nounwind uwtable
define internal void @_ZN5clang6format12_GLOBAL__N_116UsingDeclarationD2Ev(ptr noundef nonnull align 8 dereferenceable(40) %0) unnamed_addr #0 align 2 {
  %2 = alloca ptr, align 8
  store ptr %0, ptr %2, align 8
  %3 = load ptr, ptr %2, align 8
  %4 = getelementptr inbounds nuw %"struct.clang::format::(anonymous namespace)::UsingDeclaration", ptr %3, i32 0, i32 1
  call void @_ZNSt7__cxx1112basic_stringIcSt11char_traitsIcESaIcEED1Ev(ptr noundef nonnull align 8 dereferenceable(32) %4) #9
  ret void
}

; Function Attrs: mustprogress nounwind uwtable
define internal noundef ptr @_ZSt18uninitialized_moveIPN5clang6format12_GLOBAL__N_116UsingDeclarationES4_ET0_T_S6_S5_(ptr noundef %0, ptr noundef %1, ptr noundef %2) #0 {
  %4 = alloca ptr, align 8
  %5 = alloca ptr, align 8
  %6 = alloca ptr, align 8
  %7 = alloca %"class.std::move_iterator", align 8
  %8 = alloca %"class.std::move_iterator", align 8
  store ptr %0, ptr %4, align 8
  store ptr %1, ptr %5, align 8
  store ptr %2, ptr %6, align 8
  %9 = load ptr, ptr %4, align 8
  %10 = call ptr @_ZSt18make_move_iteratorIPN5clang6format12_GLOBAL__N_116UsingDeclarationEESt13move_iteratorIT_ES6_(ptr noundef %9)
  %11 = getelementptr inbounds nuw %"class.std::move_iterator", ptr %7, i32 0, i32 0
  store ptr %10, ptr %11, align 8
  %12 = load ptr, ptr %5, align 8
  %13 = call ptr @_ZSt18make_move_iteratorIPN5clang6format12_GLOBAL__N_116UsingDeclarationEESt13move_iteratorIT_ES6_(ptr noundef %12)
  %14 = getelementptr inbounds nuw %"class.std::move_iterator", ptr %8, i32 0, i32 0
  store ptr %13, ptr %14, align 8
  %15 = load ptr, ptr %6, align 8
  %16 = getelementptr inbounds nuw %"class.std::move_iterator", ptr %7, i32 0, i32 0
  %17 = load ptr, ptr %16, align 8
  %18 = getelementptr inbounds nuw %"class.std::move_iterator", ptr %8, i32 0, i32 0
  %19 = load ptr, ptr %18, align 8
  %20 = call noundef ptr @_ZSt18uninitialized_copyISt13move_iteratorIPN5clang6format12_GLOBAL__N_116UsingDeclarationEES5_ET0_T_S8_S7_(ptr %17, ptr %19, ptr noundef %15)
  ret ptr %20
}

; Function Attrs: mustprogress nounwind uwtable
define internal noundef zeroext i1 @_ZNK4llvm25SmallVectorTemplateCommonIN5clang6format12_GLOBAL__N_116UsingDeclarationEvE7isSmallEv(ptr noundef nonnull align 8 dereferenceable(16) %0) #0 align 2 {
  %2 = alloca ptr, align 8
  store ptr %0, ptr %2, align 8
  %3 = load ptr, ptr %2, align 8
  %4 = getelementptr inbounds nuw %"class.llvm::SmallVectorBase", ptr %3, i32 0, i32 0
  %5 = load ptr, ptr %4, align 8
  %6 = call noundef ptr @_ZNK4llvm25SmallVectorTemplateCommonIN5clang6format12_GLOBAL__N_116UsingDeclarationEvE10getFirstElEv(ptr noundef nonnull align 8 dereferenceable(16) %3)
  %7 = icmp eq ptr %5, %6
  ret i1 %7
}

; Function Attrs: mustprogress nounwind uwtable
define internal void @_ZN4llvm23SmallVectorTemplateBaseIN5clang6format12_GLOBAL__N_116UsingDeclarationELb0EE13destroy_rangeEPS4_S6_(ptr noundef %0, ptr noundef %1) #0 align 2 {
  %3 = alloca ptr, align 8
  %4 = alloca ptr, align 8
  store ptr %0, ptr %3, align 8
  store ptr %1, ptr %4, align 8
  br label %5

5:                                                ; preds = %9, %2
  %6 = load ptr, ptr %3, align 8
  %7 = load ptr, ptr %4, align 8
  %8 = icmp ne ptr %6, %7
  br i1 %8, label %9, label %13

9:                                                ; preds = %5
  %10 = load ptr, ptr %4, align 8
  %11 = getelementptr inbounds %"struct.clang::format::(anonymous namespace)::UsingDeclaration", ptr %10, i32 -1
  store ptr %11, ptr %4, align 8
  %12 = load ptr, ptr %4, align 8
  call void @_ZN5clang6format12_GLOBAL__N_116UsingDeclarationD2Ev(ptr noundef nonnull align 8 dereferenceable(40) %12) #9
  br label %5, !llvm.loop !8

13:                                               ; preds = %5
  ret void
}

; Function Attrs: mustprogress nounwind uwtable
define internal void @_ZN4llvm23SmallVectorTemplateBaseIN5clang6format12_GLOBAL__N_116UsingDeclarationELb0EE18uninitialized_moveIPS4_S7_EEvT_S8_T0_(ptr noundef %0, ptr noundef %1, ptr noundef %2) #0 align 2 {
  %4 = alloca ptr, align 8
  %5 = alloca ptr, align 8
  %6 = alloca ptr, align 8
  store ptr %0, ptr %4, align 8
  store ptr %1, ptr %5, align 8
  store ptr %2, ptr %6, align 8
  %7 = load ptr, ptr %4, align 8
  %8 = load ptr, ptr %5, align 8
  %9 = load ptr, ptr %6, align 8
  %10 = call noundef ptr @_ZSt18uninitialized_moveIPN5clang6format12_GLOBAL__N_116UsingDeclarationES4_ET0_T_S6_S5_(ptr noundef %7, ptr noundef %8, ptr noundef %9)
  ret void
}

; Function Attrs: mustprogress nounwind uwtable
define internal noundef ptr @_ZN4llvm25SmallVectorTemplateCommonIN5clang6format12_GLOBAL__N_116UsingDeclarationEvE3endEv(ptr noundef nonnull align 8 dereferenceable(16) %0) #0 align 2 {
  %2 = alloca ptr, align 8
  store ptr %0, ptr %2, align 8
  %3 = load ptr, ptr %2, align 8
  %4 = call noundef ptr @_ZN4llvm25SmallVectorTemplateCommonIN5clang6format12_GLOBAL__N_116UsingDeclarationEvE5beginEv(ptr noundef nonnull align 8 dereferenceable(16) %3)
  %5 = call noundef i64 @_ZNK4llvm15SmallVectorBaseIjE4sizeEv(ptr noundef nonnull align 8 dereferenceable(16) %3)
  %6 = getelementptr inbounds %"struct.clang::format::(anonymous namespace)::UsingDeclaration", ptr %4, i64 %5
  ret ptr %6
}

; Function Attrs: mustprogress nounwind uwtable
define internal noundef ptr @_ZN4llvm25SmallVectorTemplateCommonIN5clang6format12_GLOBAL__N_116UsingDeclarationEvE5beginEv(ptr noundef nonnull align 8 dereferenceable(16) %0) #0 align 2 {
  %2 = alloca ptr, align 8
  store ptr %0, ptr %2, align 8
  %3 = load ptr, ptr %2, align 8
  %4 = getelementptr inbounds nuw %"class.llvm::SmallVectorBase", ptr %3, i32 0, i32 0
  %5 = load ptr, ptr %4, align 8
  ret ptr %5
}

; Function Attrs: mustprogress nounwind uwtable
define internal noundef ptr @_ZNK4llvm25SmallVectorTemplateCommonIN5clang6format12_GLOBAL__N_116UsingDeclarationEvE10getFirstElEv(ptr noundef nonnull align 8 dereferenceable(16) %0) #0 align 2 {
  %2 = alloca ptr, align 8
  store ptr %0, ptr %2, align 8
  %3 = load ptr, ptr %2, align 8
  %4 = getelementptr inbounds i8, ptr %3, i64 16
  ret ptr %4
}

; Function Attrs: mustprogress nounwind uwtable
define internal void @_ZN4llvm23SmallVectorTemplateBaseIN5clang6format12_GLOBAL__N_116UsingDeclarationELb0EE21takeAllocationForGrowEPS4_m(ptr noundef nonnull align 8 dereferenceable(16) %0, ptr noundef %1, i64 noundef %2) #0 align 2 {
  %4 = alloca ptr, align 8
  %5 = alloca ptr, align 8
  %6 = alloca i64, align 8
  store ptr %0, ptr %4, align 8
  store ptr %1, ptr %5, align 8
  store i64 %2, ptr %6, align 8
  %7 = load ptr, ptr %4, align 8
  %8 = call noundef zeroext i1 @_ZNK4llvm25SmallVectorTemplateCommonIN5clang6format12_GLOBAL__N_116UsingDeclarationEvE7isSmallEv(ptr noundef nonnull align 8 dereferenceable(16) %7)
  br i1 %8, label %11, label %9

9:                                                ; preds = %3
  %10 = call noundef ptr @_ZN4llvm25SmallVectorTemplateCommonIN5clang6format12_GLOBAL__N_116UsingDeclarationEvE5beginEv(ptr noundef nonnull align 8 dereferenceable(16) %7)
  call void @free(ptr noundef %10) #9
  br label %11

11:                                               ; preds = %9, %3
  %12 = load ptr, ptr %5, align 8
  %13 = load i64, ptr %6, align 8
  call void @_ZN4llvm15SmallVectorBaseIjE20set_allocation_rangeEPvm(ptr noundef nonnull align 8 dereferenceable(16) %7, ptr noundef %12, i64 noundef %13)
  ret void
}

; Function Attrs: mustprogress nounwind uwtable
define internal void @_ZN4llvm23SmallVectorTemplateBaseIN5clang6format12_GLOBAL__N_116UsingDeclarationELb0EE19moveElementsForGrowEPS4_(ptr noundef nonnull align 8 dereferenceable(16) %0, ptr noundef %1) #0 align 2 {
  %3 = alloca ptr, align 8
  %4 = alloca ptr, align 8
  store ptr %0, ptr %3, align 8
  store ptr %1, ptr %4, align 8
  %5 = load ptr, ptr %3, align 8
  %6 = call noundef ptr @_ZN4llvm25SmallVectorTemplateCommonIN5clang6format12_GLOBAL__N_116UsingDeclarationEvE5beginEv(ptr noundef nonnull align 8 dereferenceable(16) %5)
  %7 = call noundef ptr @_ZN4llvm25SmallVectorTemplateCommonIN5clang6format12_GLOBAL__N_116UsingDeclarationEvE3endEv(ptr noundef nonnull align 8 dereferenceable(16) %5)
  %8 = load ptr, ptr %4, align 8
  call void @_ZN4llvm23SmallVectorTemplateBaseIN5clang6format12_GLOBAL__N_116UsingDeclarationELb0EE18uninitialized_moveIPS4_S7_EEvT_S8_T0_(ptr noundef %6, ptr noundef %7, ptr noundef %8)
  %9 = call noundef ptr @_ZN4llvm25SmallVectorTemplateCommonIN5clang6format12_GLOBAL__N_116UsingDeclarationEvE5beginEv(ptr noundef nonnull align 8 dereferenceable(16) %5)
  %10 = call noundef ptr @_ZN4llvm25SmallVectorTemplateCommonIN5clang6format12_GLOBAL__N_116UsingDeclarationEvE3endEv(ptr noundef nonnull align 8 dereferenceable(16) %5)
  call void @_ZN4llvm23SmallVectorTemplateBaseIN5clang6format12_GLOBAL__N_116UsingDeclarationELb0EE13destroy_rangeEPS4_S6_(ptr noundef %9, ptr noundef %10)
  ret void
}

; Function Attrs: mustprogress nounwind uwtable
define internal noundef ptr @_ZN4llvm23SmallVectorTemplateBaseIN5clang6format12_GLOBAL__N_116UsingDeclarationELb0EE13mallocForGrowEmRm(ptr noundef nonnull align 8 dereferenceable(16) %0, i64 noundef %1, ptr noundef nonnull align 8 dereferenceable(8) %2) #0 align 2 {
  %4 = alloca ptr, align 8
  %5 = alloca i64, align 8
  %6 = alloca ptr, align 8
  store ptr %0, ptr %4, align 8
  store i64 %1, ptr %5, align 8
  store ptr %2, ptr %6, align 8
  %7 = load ptr, ptr %4, align 8
  %8 = call noundef ptr @_ZNK4llvm25SmallVectorTemplateCommonIN5clang6format12_GLOBAL__N_116UsingDeclarationEvE10getFirstElEv(ptr noundef nonnull align 8 dereferenceable(16) %7)
  %9 = load i64, ptr %5, align 8
  %10 = load ptr, ptr %6, align 8
  %11 = call noundef ptr @_ZN4llvm15SmallVectorBaseIjE13mallocForGrowEPvmmRm(ptr noundef nonnull align 8 dereferenceable(16) %7, ptr noundef %8, i64 noundef %9, i64 noundef 40, ptr noundef nonnull align 8 dereferenceable(8) %10)
  ret ptr %11
}

; Function Attrs: mustprogress nounwind uwtable
define internal void @_ZN4llvm23SmallVectorTemplateBaseIN5clang6format12_GLOBAL__N_116UsingDeclarationELb0EE4growEm(ptr noundef nonnull align 8 dereferenceable(16) %0, i64 noundef %1) #0 align 2 {
  %3 = alloca ptr, align 8
  %4 = alloca i64, align 8
  %5 = alloca i64, align 8
  %6 = alloca ptr, align 8
  store ptr %0, ptr %3, align 8
  store i64 %1, ptr %4, align 8
  %7 = load ptr, ptr %3, align 8
  %8 = load i64, ptr %4, align 8
  %9 = call noundef ptr @_ZN4llvm23SmallVectorTemplateBaseIN5clang6format12_GLOBAL__N_116UsingDeclarationELb0EE13mallocForGrowEmRm(ptr noundef nonnull align 8 dereferenceable(16) %7, i64 noundef %8, ptr noundef nonnull align 8 dereferenceable(8) %5)
  store ptr %9, ptr %6, align 8
  %10 = load ptr, ptr %6, align 8
  call void @_ZN4llvm23SmallVectorTemplateBaseIN5clang6format12_GLOBAL__N_116UsingDeclarationELb0EE19moveElementsForGrowEPS4_(ptr noundef nonnull align 8 dereferenceable(16) %7, ptr noundef %10)
  %11 = load ptr, ptr %6, align 8
  %12 = load i64, ptr %5, align 8
  call void @_ZN4llvm23SmallVectorTemplateBaseIN5clang6format12_GLOBAL__N_116UsingDeclarationELb0EE21takeAllocationForGrowEPS4_m(ptr noundef nonnull align 8 dereferenceable(16) %7, ptr noundef %11, i64 noundef %12)
  ret void
}