; Function Attrs: mustprogress nounwind uwtable
define internal fastcc void @_ZN4llvm23SmallVectorTemplateBaseIN5clang6format12_GLOBAL__N_116UsingDeclarationELb0EE4growEm(ptr noundef nonnull align 8 dereferenceable(16) %0, i64 noundef %1) unnamed_addr #0 align 2 {
  %3 = alloca i64, align 8
  %4 = getelementptr inbounds i8, ptr %0, i64 16
  %5 = call noundef ptr @_ZN4llvm15SmallVectorBaseIjE13mallocForGrowEPvmmRm(ptr noundef nonnull align 8 dereferenceable(16) %0, ptr noundef nonnull %4, i64 noundef %1, i64 noundef 40, ptr noundef nonnull align 8 dereferenceable(8) %3) #12
  %.val2.i = load ptr, ptr %0, align 8
  %6 = call noundef i64 @_ZNK4llvm15SmallVectorBaseIjE4sizeEv(ptr noundef nonnull align 8 dereferenceable(16) %0) #12
  %7 = getelementptr inbounds %"struct.clang::format::(anonymous namespace)::UsingDeclaration", ptr %.val2.i, i64 %6
  %.not7.i.i.i.i.i.i = icmp eq i64 %6, 0
  br i1 %.not7.i.i.i.i.i.i, label %_ZN4llvm23SmallVectorTemplateBaseIN5clang6format12_GLOBAL__N_116UsingDeclarationELb0EE18uninitialized_moveIPS4_S7_EEvT_S8_T0_.exit.i, label %.lr.ph.i.i.i.i.i.i

.lr.ph.i.i.i.i.i.i:                               ; preds = %2, %.lr.ph.i.i.i.i.i.i
  %.09.i.i.i.i.i.i = phi ptr [ %12, %.lr.ph.i.i.i.i.i.i ], [ %5, %2 ]
  %.sroa.06.08.i.i.i.i.i.i = phi ptr [ %11, %.lr.ph.i.i.i.i.i.i ], [ %.val2.i, %2 ]
  %8 = load ptr, ptr %.sroa.06.08.i.i.i.i.i.i, align 8
  store ptr %8, ptr %.09.i.i.i.i.i.i, align 8
  %9 = getelementptr inbounds nuw i8, ptr %.09.i.i.i.i.i.i, i64 8
  %10 = getelementptr inbounds nuw i8, ptr %.sroa.06.08.i.i.i.i.i.i, i64 8
  call void @_ZNSt7__cxx1112basic_stringIcSt11char_traitsIcESaIcEEC1EOS4_(ptr noundef nonnull align 8 dereferenceable(32) %9, ptr noundef nonnull align 8 dereferenceable(32) %10) #12
  %11 = getelementptr inbounds i8, ptr %.sroa.06.08.i.i.i.i.i.i, i64 40
  %12 = getelementptr inbounds i8, ptr %.09.i.i.i.i.i.i, i64 40
  %.not.i.i.i.i.i.i = icmp eq ptr %11, %7
  br i1 %.not.i.i.i.i.i.i, label %_ZN4llvm23SmallVectorTemplateBaseIN5clang6format12_GLOBAL__N_116UsingDeclarationELb0EE18uninitialized_moveIPS4_S7_EEvT_S8_T0_.exit.i, label %.lr.ph.i.i.i.i.i.i, !llvm.loop !26

_ZN4llvm23SmallVectorTemplateBaseIN5clang6format12_GLOBAL__N_116UsingDeclarationELb0EE18uninitialized_moveIPS4_S7_EEvT_S8_T0_.exit.i: ; preds = %.lr.ph.i.i.i.i.i.i, %2
  %.val.i = load ptr, ptr %0, align 8
  %13 = call noundef i64 @_ZNK4llvm15SmallVectorBaseIjE4sizeEv(ptr noundef nonnull align 8 dereferenceable(16) %0) #12
  %.not4.i.i = icmp eq i64 %13, 0
  br i1 %.not4.i.i, label %_ZN4llvm23SmallVectorTemplateBaseIN5clang6format12_GLOBAL__N_116UsingDeclarationELb0EE19moveElementsForGrowEPS4_.exit, label %.lr.ph.i.preheader.i

.lr.ph.i.preheader.i:                             ; preds = %_ZN4llvm23SmallVectorTemplateBaseIN5clang6format12_GLOBAL__N_116UsingDeclarationELb0EE18uninitialized_moveIPS4_S7_EEvT_S8_T0_.exit.i
  %14 = getelementptr inbounds %"struct.clang::format::(anonymous namespace)::UsingDeclaration", ptr %.val.i, i64 %13
  br label %.lr.ph.i.i

.lr.ph.i.i:                                       ; preds = %.lr.ph.i.i, %.lr.ph.i.preheader.i
  %.05.i.i = phi ptr [ %15, %.lr.ph.i.i ], [ %14, %.lr.ph.i.preheader.i ]
  %15 = getelementptr inbounds i8, ptr %.05.i.i, i64 -40
  %16 = getelementptr inbounds i8, ptr %.05.i.i, i64 -32
  call void @_ZNSt7__cxx1112basic_stringIcSt11char_traitsIcESaIcEED1Ev(ptr noundef nonnull align 8 dereferenceable(32) %16) #12
  %.not.i.i = icmp eq ptr %.val.i, %15
  br i1 %.not.i.i, label %_ZN4llvm23SmallVectorTemplateBaseIN5clang6format12_GLOBAL__N_116UsingDeclarationELb0EE19moveElementsForGrowEPS4_.exit, label %.lr.ph.i.i, !llvm.loop !15

_ZN4llvm23SmallVectorTemplateBaseIN5clang6format12_GLOBAL__N_116UsingDeclarationELb0EE19moveElementsForGrowEPS4_.exit: ; preds = %.lr.ph.i.i, %_ZN4llvm23SmallVectorTemplateBaseIN5clang6format12_GLOBAL__N_116UsingDeclarationELb0EE18uninitialized_moveIPS4_S7_EEvT_S8_T0_.exit.i
  %17 = load i64, ptr %3, align 8
  %18 = load ptr, ptr %0, align 8
  %19 = icmp eq ptr %18, %4
  br i1 %19, label %_ZN4llvm23SmallVectorTemplateBaseIN5clang6format12_GLOBAL__N_116UsingDeclarationELb0EE21takeAllocationForGrowEPS4_m.exit, label %20

20:                                               ; preds = %_ZN4llvm23SmallVectorTemplateBaseIN5clang6format12_GLOBAL__N_116UsingDeclarationELb0EE19moveElementsForGrowEPS4_.exit
  call void @free(ptr noundef %18) #12
  br label %_ZN4llvm23SmallVectorTemplateBaseIN5clang6format12_GLOBAL__N_116UsingDeclarationELb0EE21takeAllocationForGrowEPS4_m.exit

_ZN4llvm23SmallVectorTemplateBaseIN5clang6format12_GLOBAL__N_116UsingDeclarationELb0EE21takeAllocationForGrowEPS4_m.exit: ; preds = %_ZN4llvm23SmallVectorTemplateBaseIN5clang6format12_GLOBAL__N_116UsingDeclarationELb0EE19moveElementsForGrowEPS4_.exit, %20
  call void @_ZN4llvm15SmallVectorBaseIjE20set_allocation_rangeEPvm(ptr noundef nonnull align 8 dereferenceable(16) %0, ptr noundef %5, i64 noundef %17) #12
  ret void
}